A51 MACRO ASSEMBLER  INDEPENDENTKEYBOARD_0                                                12/08/2020 09:28:10 PAGE     1


MACRO ASSEMBLER A51 V8.02c
OBJECT MODULE PLACED IN .\Objects\IndependentKeyboard_0.obj
ASSEMBLER INVOKED BY: E:\Keil_v5\C51\BIN\A51.EXE IndependentKeyboard_0.asm SET(SMALL) DEBUG PRINT(.\Listings\Independent
                      Keyboard_0.lst) OBJECT(.\Objects\IndependentKeyboard_0.obj) EP

LOC  OBJ            LINE     SOURCE

0000                   1                     ORG             0000H
0000 2100              2                     AJMP    START
0100                   3                     ORG     0100H
                       4                             
0100 758160            5     START:  MOV             SP,#60H
0103 120109            6     MAIN:   LCALL   KEY1;跳转至KEY1
0106 020103            7                     LJMP    MAIN;重复循环
0109 7590FF            8     KEY1:   MOV             P1,#0FFH;P1口全写入1
010C F5F0              9                     MOV             B,A;
010E 85F0A0           10                     MOV             P2,B;
0111 E590             11                     MOV             A,P1;读入八个按键的状态，有键按下则为0
0113 F4               12                     CPL             A;全部取反，有键按下则为1
0114 60F3             13                     JZ              KEY1;如果累加器A全为0，则无键按下，跳转至KEY1重新开始
0116 1201DF           14                     LCALL   D10ms;去抖动
0119 E590             15                     MOV             A,P1;读入八个按键的状态，有键按下则为0
011B F4               16                     CPL             A;全部取反，有键按下则为1
011C 60EB             17                     JZ              KEY1;如果累加器A全为0，则无键按下，跳转至KEY1重新开始
011E 20E016           18                     JB              ACC.0,PK0
0121 20E119           19                     JB              ACC.1,PK1
0124 20E21C           20                     JB              ACC.2,PK2
0127 20E31F           21                     JB              ACC.3,PK3
012A 20E422           22                     JB              ACC.4,PK4
012D 20E525           23                     JB              ACC.5,PK5
0130 20E628           24                     JB              ACC.6,PK6
0133 20E72B           25                     JB              ACC.7,PK7
0136 22               26                     RET
                      27     
0137 120167           28     PK0:    LCALL   PKEY0
013A 020109           29                     LJMP    KEY1
013D 120176           30     PK1:    LCALL   PKEY1
0140 020109           31                     LJMP    KEY1
0143 120185           32     PK2:    LCALL   PKEY2
0146 020109           33                     LJMP    KEY1
0149 120194           34     PK3:    LCALL   PKEY3
014C 020109           35                     LJMP    KEY1            
014F 1201A3           36     PK4:    LCALL   PKEY4
0152 020109           37                     LJMP    KEY1            
0155 1201B2           38     PK5:    LCALL   PKEY5
0158 020109           39                     LJMP    KEY1
015B 1201C1           40     PK6:    LCALL   PKEY6
015E 020109           41                     LJMP    KEY1
0161 1201D0           42     PK7:    LCALL   PKEY7
0164 020109           43                     LJMP    KEY1    
                      44                     
0167 F5F0             45     PKEY0:  MOV             B,A;
0169 85F0A0           46                     MOV             P2,B;
016C 3090F8           47                     JNB             P1.0,PKEY0
016F 1201DF           48                     LCALL   D10ms
0172 3090F2           49                     JNB             P1.0,PKEY0
0175 22               50                     RET
0176 F5F0             51     PKEY1:  MOV             B,A;
0178 85F0A0           52                     MOV             P2,B;
017B 3091F8           53                     JNB             P1.1,PKEY1
017E 1201DF           54                     LCALL   D10ms
0181 3091F2           55                     JNB             P1.1,PKEY1
0184 22               56                     RET
0185 F5F0             57     PKEY2:  MOV             B,A;
A51 MACRO ASSEMBLER  INDEPENDENTKEYBOARD_0                                                12/08/2020 09:28:10 PAGE     2

0187 85F0A0           58                     MOV             P2,B;
018A 3092F8           59                     JNB             P1.2,PKEY2
018D 1201DF           60                     LCALL   D10ms
0190 3092F2           61                     JNB             P1.2,PKEY2
0193 22               62                     RET
0194 F5F0             63     PKEY3:  MOV             B,A;
0196 85F0A0           64                     MOV             P2,B;
0199 3093F8           65                     JNB             P1.3,PKEY3
019C 1201DF           66                     LCALL   D10ms
019F 3093F2           67                     JNB             P1.3,PKEY3
01A2 22               68                     RET
01A3 F5F0             69     PKEY4:  MOV             B,A;
01A5 85F0A0           70                     MOV             P2,B;
01A8 3094F8           71                     JNB             P1.4,PKEY4
01AB 1201DF           72                     LCALL   D10ms
01AE 3094F2           73                     JNB             P1.4,PKEY4
01B1 22               74                     RET
01B2 F5F0             75     PKEY5:  MOV             B,A;
01B4 85F0A0           76                     MOV             P2,B;
01B7 3095F8           77                     JNB             P1.5,PKEY5
01BA 1201DF           78                     LCALL   D10ms
01BD 3095F2           79                     JNB             P1.5,PKEY5
01C0 22               80                     RET
01C1 F5F0             81     PKEY6:  MOV             B,A;
01C3 85F0A0           82                     MOV             P2,B;
01C6 3096F8           83                     JNB             P1.6,PKEY6
01C9 1201DF           84                     LCALL   D10ms
01CC 3096F2           85                     JNB             P1.6,PKEY6
01CF 22               86                     RET
01D0 F5F0             87     PKEY7:  MOV             B,A;
01D2 85F0A0           88                     MOV             P2,B;
01D5 3097F8           89                     JNB             P1.7,PKEY7
01D8 1201DF           90                     LCALL   D10ms
01DB 3097F2           91                     JNB             P1.7,PKEY7
01DE 22               92                     RET
                      93     
01DF 7F19             94     D10ms:  MOV             R7,#25
01E1 7EC8             95     D1:             MOV             R6,#200
01E3 DEFE             96                     DJNZ    R6,$
01E5 DFFA             97                     DJNZ    R7,D1
01E7 22               98                     RET
                      99             
                     100                     END
                                                     
A51 MACRO ASSEMBLER  INDEPENDENTKEYBOARD_0                                                12/08/2020 09:28:10 PAGE     3

SYMBOL TABLE LISTING
------ ----- -------


N A M E             T Y P E  V A L U E   ATTRIBUTES

ACC. . . . . . . .  D ADDR   00E0H   A   
B. . . . . . . . .  D ADDR   00F0H   A   
D1 . . . . . . . .  C ADDR   01E1H   A   
D10MS. . . . . . .  C ADDR   01DFH   A   
KEY1 . . . . . . .  C ADDR   0109H   A   
MAIN . . . . . . .  C ADDR   0103H   A   
P1 . . . . . . . .  D ADDR   0090H   A   
P2 . . . . . . . .  D ADDR   00A0H   A   
PK0. . . . . . . .  C ADDR   0137H   A   
PK1. . . . . . . .  C ADDR   013DH   A   
PK2. . . . . . . .  C ADDR   0143H   A   
PK3. . . . . . . .  C ADDR   0149H   A   
PK4. . . . . . . .  C ADDR   014FH   A   
PK5. . . . . . . .  C ADDR   0155H   A   
PK6. . . . . . . .  C ADDR   015BH   A   
PK7. . . . . . . .  C ADDR   0161H   A   
PKEY0. . . . . . .  C ADDR   0167H   A   
PKEY1. . . . . . .  C ADDR   0176H   A   
PKEY2. . . . . . .  C ADDR   0185H   A   
PKEY3. . . . . . .  C ADDR   0194H   A   
PKEY4. . . . . . .  C ADDR   01A3H   A   
PKEY5. . . . . . .  C ADDR   01B2H   A   
PKEY6. . . . . . .  C ADDR   01C1H   A   
PKEY7. . . . . . .  C ADDR   01D0H   A   
SP . . . . . . . .  D ADDR   0081H   A   
START. . . . . . .  C ADDR   0100H   A   


REGISTER BANK(S) USED: 0 


ASSEMBLY COMPLETE.  0 WARNING(S), 0 ERROR(S)
